Certificate:
    Data:
        Version: 3 (0x2)
        Serial Number: 27 (0x1b)
        Signature Algorithm: sha1WithRSAEncryption
        Issuer: C=US, O=Google, OU=Enterprise, CN=Enterprise Subordinate CA
        Validity
            Not Before: Dec 22 14:25:09 2020 GMT
            Not After : Dec 22 14:25:09 2022 GMT
        Subject: C=US, O=Google, OU=Enterprise, CN=webauthn.domain.com
        Subject Public Key Info:
            Public Key Algorithm: rsaEncryption
                RSA Public-Key: (2048 bit)
                Modulus:
                    00:cb:70:a0:c2:c9:6a:c1:6c:66:ec:4c:c6:7c:56:
                    a5:bf:af:dc:87:ff:f7:17:ff:c8:1d:33:77:cc:34:
                    cf:b0:20:3c:98:50:21:3d:82:ec:0f:07:03:58:2c:
                    99:9c:40:19:74:ab:ea:b3:d0:d8:ae:33:9e:66:78:
                    b2:ea:8e:fb:ca:d7:75:fb:c0:9e:04:b8:a4:05:df:
                    4a:41:0a:a3:ee:6c:13:13:de:5e:4b:75:73:32:1f:
                    89:fd:6f:d1:27:42:5a:75:d5:28:c0:17:26:3b:33:
                    af:5a:c1:ea:77:d2:c9:a8:6e:b8:49:27:cb:83:e4:
                    18:44:3f:2f:55:e3:bd:ec:ed:0e:e2:43:f8:88:10:
                    c1:14:62:e9:34:a3:48:f8:af:da:fb:be:9c:a3:4f:
                    81:73:87:fc:5f:81:4a:9c:0c:7d:2e:47:08:46:61:
                    6c:7d:d1:2c:fe:38:bc:88:63:19:ca:8d:f1:54:5e:
                    1b:db:c0:cd:53:22:83:00:a6:33:b5:78:16:05:5b:
                    59:50:59:49:bf:c8:0a:33:69:79:aa:40:5a:b1:f7:
                    f7:9e:ac:ad:5c:6b:6f:de:b7:12:ce:86:2c:61:57:
                    ff:c1:03:d8:d6:b8:8c:f6:ef:ef:1f:1e:dd:a9:08:
                    05:ca:86:c9:31:0e:db:21:fa:3b:d6:ac:5c:20:11:
                    af:ef
                Exponent: 65537 (0x10001)
        X509v3 extensions:
            X509v3 Key Usage: critical
                Digital Signature
            X509v3 Basic Constraints: 
                CA:FALSE
            X509v3 Extended Key Usage: 
                TLS Web Server Authentication
            X509v3 Subject Key Identifier: 
                B3:86:12:E2:15:BB:58:00:55:90:BD:2C:E2:E7:95:AC:00:E1:24:77
            X509v3 Authority Key Identifier: 
                keyid:BF:E1:1C:F0:22:48:8F:FC:3B:CF:5D:D9:ED:AE:88:70:21:DF:DD:86

            Authority Information Access: 
                CA Issuers - URI:http://pki.esodemoapp2.com/ca/tls-ca.cer

            X509v3 CRL Distribution Points: 

                Full Name:
                  URI:http://pki.esodemoapp2.com/ca/tls-ca.crl

            X509v3 Subject Alternative Name: 
                DNS:webauthn.domain.com
    Signature Algorithm: sha1WithRSAEncryption
         36:f1:65:19:72:ed:02:15:d0:da:cf:80:63:5c:13:16:18:22:
         af:43:bb:6b:27:bf:67:10:93:c5:4f:9b:71:f5:56:d2:54:cc:
         34:b9:41:71:04:65:a0:fd:6b:ec:ae:31:30:0d:88:31:0d:8e:
         fe:0b:d7:d1:80:fe:d1:2a:33:a9:26:d8:48:da:de:c4:77:3d:
         0b:cf:14:b9:f0:3e:b3:6d:b6:f7:da:b9:c0:79:a1:d3:03:4d:
         5a:36:91:32:15:b7:b0:96:d9:1e:1c:ec:97:80:89:da:09:f9:
         92:77:90:04:8d:a9:d9:7f:37:c9:c0:67:64:99:96:91:f0:6d:
         5d:20:48:30:3f:50:1b:ce:09:23:d4:1c:d0:6b:e6:2b:54:dd:
         db:58:87:ac:26:7d:84:e0:4d:7c:fd:a3:19:a6:2a:75:75:f3:
         dd:a2:9d:82:ce:93:f3:09:aa:7e:70:e5:55:5e:38:a5:6c:33:
         cf:15:80:a8:e0:9b:27:91:25:be:09:c5:09:49:c3:79:6f:6a:
         29:34:af:77:a0:1a:c0:fe:6a:fe:aa:f6:71:5a:59:c5:73:e7:
         c4:d3:96:0b:03:29:67:5c:99:44:eb:d3:79:f2:ec:19:da:4e:
         7f:95:80:90:21:bb:60:59:08:4c:eb:ba:5a:cd:5e:91:16:7a:
         92:29:cb:18
-----BEGIN CERTIFICATE-----
MIIEOjCCAyKgAwIBAgIBGzANBgkqhkiG9w0BAQUFADBXMQswCQYDVQQGEwJVUzEP
MA0GA1UECgwGR29vZ2xlMRMwEQYDVQQLDApFbnRlcnByaXNlMSIwIAYDVQQDDBlF
bnRlcnByaXNlIFN1Ym9yZGluYXRlIENBMB4XDTIwMTIyMjE0MjUwOVoXDTIyMTIy
MjE0MjUwOVowUTELMAkGA1UEBhMCVVMxDzANBgNVBAoMBkdvb2dsZTETMBEGA1UE
CwwKRW50ZXJwcmlzZTEcMBoGA1UEAwwTd2ViYXV0aG4uZG9tYWluLmNvbTCCASIw
DQYJKoZIhvcNAQEBBQADggEPADCCAQoCggEBAMtwoMLJasFsZuxMxnxWpb+v3If/
9xf/yB0zd8w0z7AgPJhQIT2C7A8HA1gsmZxAGXSr6rPQ2K4znmZ4suqO+8rXdfvA
ngS4pAXfSkEKo+5sExPeXkt1czIfif1v0SdCWnXVKMAXJjszr1rB6nfSyahuuEkn
y4PkGEQ/L1XjveztDuJD+IgQwRRi6TSjSPiv2vu+nKNPgXOH/F+BSpwMfS5HCEZh
bH3RLP44vIhjGcqN8VReG9vAzVMigwCmM7V4FgVbWVBZSb/ICjNpeapAWrH3956s
rVxrb963Es6GLGFX/8ED2Na4jPbv7x8e3akIBcqGyTEO2yH6O9asXCARr+8CAwEA
AaOCARUwggERMA4GA1UdDwEB/wQEAwIHgDAJBgNVHRMEAjAAMBMGA1UdJQQMMAoG
CCsGAQUFBwMBMB0GA1UdDgQWBBSzhhLiFbtYAFWQvSzi55WsAOEkdzAfBgNVHSME
GDAWgBS/4RzwIkiP/DvPXdntrohwId/dhjBEBggrBgEFBQcBAQQ4MDYwNAYIKwYB
BQUHMAKGKGh0dHA6Ly9wa2kuZXNvZGVtb2FwcDIuY29tL2NhL3Rscy1jYS5jZXIw
OQYDVR0fBDIwMDAuoCygKoYoaHR0cDovL3BraS5lc29kZW1vYXBwMi5jb20vY2Ev
dGxzLWNhLmNybDAeBgNVHREEFzAVghN3ZWJhdXRobi5kb21haW4uY29tMA0GCSqG
SIb3DQEBBQUAA4IBAQA28WUZcu0CFdDaz4BjXBMWGCKvQ7trJ79nEJPFT5tx9VbS
VMw0uUFxBGWg/WvsrjEwDYgxDY7+C9fRgP7RKjOpJthI2t7Edz0LzxS58D6zbbb3
2rnAeaHTA01aNpEyFbewltkeHOyXgInaCfmSd5AEjanZfzfJwGdkmZaR8G1dIEgw
P1Abzgkj1BzQa+YrVN3bWIesJn2E4E18/aMZpip1dfPdop2CzpPzCap+cOVVXjil
bDPPFYCo4JsnkSW+CcUJScN5b2opNK93oBrA/mr+qvZxWlnFc+fE05YLAylnXJlE
69N58uwZ2k5/lYCQIbtgWQhM67pazV6RFnqSKcsY
-----END CERTIFICATE-----
